; Function Attrs: nofree nosync nounwind memory(readwrite, inaccessiblemem: none) uwtable
define range(i32 0, 2) i32 @Sfm_NtkCheckOverlap_rec(ptr noundef readonly captures(none) %0, i32 noundef %1, i32 noundef %2) local_unnamed_addr #0 {
  %4 = getelementptr i8, ptr %0, i64 224
  %.val24 = load ptr, ptr %4, align 8, !tbaa !21
  %5 = getelementptr i8, ptr %0, i64 236
  %.val25 = load i32, ptr %5, align 4, !tbaa !40
  %6 = sext i32 %1 to i64
  %7 = getelementptr inbounds i32, ptr %.val24, i64 %6
  %8 = load i32, ptr %7, align 4, !tbaa !22
  %9 = icmp eq i32 %8, %.val25
  %10 = icmp eq i32 %1, %2
  %or.cond = or i1 %10, %9
  br i1 %or.cond, label %.critedge, label %11

11:                                               ; preds = %3
  %12 = getelementptr i8, ptr %0, i64 208
  %.val26 = load ptr, ptr %12, align 8, !tbaa !21
  %13 = getelementptr i8, ptr %0, i64 232
  %.val27 = load i32, ptr %13, align 8, !tbaa !28
  %14 = getelementptr inbounds i32, ptr %.val26, i64 %6
  %15 = load i32, ptr %14, align 4, !tbaa !22
  %16 = add nsw i32 %.val27, -1
  %.not = icmp eq i32 %15, %16
  br i1 %.not, label %.critedge, label %17

17:                                               ; preds = %11
  store i32 %.val25, ptr %7, align 4, !tbaa !22
  %18 = getelementptr i8, ptr %0, i64 64
  %.val30 = load ptr, ptr %18, align 8, !tbaa !19
  %19 = getelementptr %struct.Vec_Int_t_, ptr %.val30, i64 %6, i32 1
  %.val1.i31 = load i32, ptr %19, align 4, !tbaa !20
  %20 = icmp sgt i32 %.val1.i31, 0
  br i1 %20, label %.lr.ph, label %.critedge

21:                                               ; preds = %.lr.ph
  %indvars.iv.next = add nuw nsw i64 %indvars.iv, 1
  %.val = load ptr, ptr %18, align 8, !tbaa !19
  %22 = getelementptr %struct.Vec_Int_t_, ptr %.val, i64 %6, i32 1
  %.val1.i = load i32, ptr %22, align 4, !tbaa !20
  %23 = sext i32 %.val1.i to i64
  %24 = icmp slt i64 %indvars.iv.next, %23
  br i1 %24, label %.lr.ph, label %.critedge, !llvm.loop !41

.lr.ph:                                           ; preds = %17, %21
  %indvars.iv = phi i64 [ %indvars.iv.next, %21 ], [ 0, %17 ]
  %.val33 = phi ptr [ %.val, %21 ], [ %.val30, %17 ]
  %25 = getelementptr %struct.Vec_Int_t_, ptr %.val33, i64 %6, i32 2
  %.val2.i = load ptr, ptr %25, align 8, !tbaa !21
  %26 = getelementptr inbounds nuw i32, ptr %.val2.i, i64 %indvars.iv
  %27 = load i32, ptr %26, align 4, !tbaa !22
  %28 = tail call i32 @Sfm_NtkCheckOverlap_rec(ptr noundef nonnull %0, i32 noundef %27, i32 noundef %2)
  %.not22 = icmp eq i32 %28, 0
  br i1 %.not22, label %21, label %.critedge

.critedge:                                        ; preds = %.lr.ph, %21, %17, %11, %3
  %.0 = phi i32 [ 0, %3 ], [ 1, %11 ], [ 0, %17 ], [ 1, %.lr.ph ], [ 0, %21 ]
  ret i32 %.0
}